target datalayout = "e-m:e-p270:32:32-p271:32:32-p272:64:64-i64:64-i128:128-f80:128-n8:16:32:64-S128"
target triple = "x86_64-pc-linux-gnu"

%struct.FunctionCallInfoBaseData = type { ptr, ptr, ptr, i32, i8, i16, [0 x %struct.NullableDatum] }
%struct.NullableDatum = type { i64, i8 }
%struct.TSQueryData = type { i32, i32, [0 x i8] }
%struct.QTNode = type { ptr, i32, i32, ptr, i32, ptr }
%struct.QueryOperator = type { i8, i8, i16, i32 }

@.str = private unnamed_addr constant [83 x i8] c"distance in phrase operator must be an integer value between zero and %d inclusive\00", align 1
@.str.1 = private unnamed_addr constant [13 x i8] c"tsquery_op.c\00", align 1
@__func__.tsquery_phrase_distance = private unnamed_addr constant [24 x i8] c"tsquery_phrase_distance\00", align 1

; Function Attrs: inlinehint nounwind uwtable
define internal i64 @TSQueryGetDatum(ptr noundef %0) #2 {
  %2 = alloca ptr, align 8
  store ptr %0, ptr %2, align 8
  %3 = load ptr, ptr %2, align 8
  %4 = call i64 @PointerGetDatum(ptr noundef %3)
  ret i64 %4
}

; Function Attrs: nounwind uwtable
define internal ptr @join_tsqueries(ptr noundef %0, ptr noundef %1, i8 noundef signext %2, i16 noundef zeroext %3) #0 {
  %5 = alloca ptr, align 8
  %6 = alloca ptr, align 8
  %7 = alloca i8, align 1
  %8 = alloca i16, align 2
  %9 = alloca ptr, align 8
  store ptr %0, ptr %5, align 8
  store ptr %1, ptr %6, align 8
  store i8 %2, ptr %7, align 1
  store i16 %3, ptr %8, align 2
  call void @llvm.lifetime.start.p0(i64 8, ptr %9) #7
  %10 = call ptr @palloc0(i64 noundef 40)
  store ptr %10, ptr %9, align 8
  %11 = load ptr, ptr %9, align 8
  %12 = getelementptr inbounds nuw %struct.QTNode, ptr %11, i32 0, i32 1
  %13 = load i32, ptr %12, align 8
  %14 = or i32 %13, 1
  store i32 %14, ptr %12, align 8
  %15 = call ptr @palloc0(i64 noundef 12)
  %16 = load ptr, ptr %9, align 8
  %17 = getelementptr inbounds nuw %struct.QTNode, ptr %16, i32 0, i32 0
  store ptr %15, ptr %17, align 8
  %18 = load ptr, ptr %9, align 8
  %19 = getelementptr inbounds nuw %struct.QTNode, ptr %18, i32 0, i32 0
  %20 = load ptr, ptr %19, align 8
  store i8 2, ptr %20, align 4
  %21 = load i8, ptr %7, align 1
  %22 = load ptr, ptr %9, align 8
  %23 = getelementptr inbounds nuw %struct.QTNode, ptr %22, i32 0, i32 0
  %24 = load ptr, ptr %23, align 8
  %25 = getelementptr inbounds nuw %struct.QueryOperator, ptr %24, i32 0, i32 1
  store i8 %21, ptr %25, align 1
  %26 = load i8, ptr %7, align 1
  %27 = sext i8 %26 to i32
  %28 = icmp eq i32 %27, 4
  br i1 %28, label %29, label %35

29:                                               ; preds = %4
  %30 = load i16, ptr %8, align 2
  %31 = load ptr, ptr %9, align 8
  %32 = getelementptr inbounds nuw %struct.QTNode, ptr %31, i32 0, i32 0
  %33 = load ptr, ptr %32, align 8
  %34 = getelementptr inbounds nuw %struct.QueryOperator, ptr %33, i32 0, i32 2
  store i16 %30, ptr %34, align 2
  br label %35

35:                                               ; preds = %29, %4
  %36 = call ptr @palloc0(i64 noundef 16)
  %37 = load ptr, ptr %9, align 8
  %38 = getelementptr inbounds nuw %struct.QTNode, ptr %37, i32 0, i32 5
  store ptr %36, ptr %38, align 8
  %39 = load ptr, ptr %6, align 8
  %40 = getelementptr inbounds nuw i8, ptr %39, i64 8
  %41 = load ptr, ptr %6, align 8
  %42 = getelementptr inbounds nuw i8, ptr %41, i64 8
  %43 = load ptr, ptr %6, align 8
  %44 = getelementptr inbounds nuw %struct.TSQueryData, ptr %43, i32 0, i32 1
  %45 = load i32, ptr %44, align 4
  %46 = sext i32 %45 to i64
  %47 = mul i64 %46, 12
  %48 = getelementptr inbounds nuw i8, ptr %42, i64 %47
  %49 = call ptr @QT2QTN(ptr noundef %40, ptr noundef %48)
  %50 = load ptr, ptr %9, align 8
  %51 = getelementptr inbounds nuw %struct.QTNode, ptr %50, i32 0, i32 5
  %52 = load ptr, ptr %51, align 8
  %53 = getelementptr inbounds ptr, ptr %52, i64 0
  store ptr %49, ptr %53, align 8
  %54 = load ptr, ptr %5, align 8
  %55 = getelementptr inbounds nuw i8, ptr %54, i64 8
  %56 = load ptr, ptr %5, align 8
  %57 = getelementptr inbounds nuw i8, ptr %56, i64 8
  %58 = load ptr, ptr %5, align 8
  %59 = getelementptr inbounds nuw %struct.TSQueryData, ptr %58, i32 0, i32 1
  %60 = load i32, ptr %59, align 4
  %61 = sext i32 %60 to i64
  %62 = mul i64 %61, 12
  %63 = getelementptr inbounds nuw i8, ptr %57, i64 %62
  %64 = call ptr @QT2QTN(ptr noundef %55, ptr noundef %63)
  %65 = load ptr, ptr %9, align 8
  %66 = getelementptr inbounds nuw %struct.QTNode, ptr %65, i32 0, i32 5
  %67 = load ptr, ptr %66, align 8
  %68 = getelementptr inbounds ptr, ptr %67, i64 1
  store ptr %64, ptr %68, align 8
  %69 = load ptr, ptr %9, align 8
  %70 = getelementptr inbounds nuw %struct.QTNode, ptr %69, i32 0, i32 2
  store i32 2, ptr %70, align 4
  %71 = load ptr, ptr %9, align 8
  call void @llvm.lifetime.end.p0(i64 8, ptr %9) #7
  ret ptr %71
}

; Function Attrs: inlinehint nounwind uwtable
define internal i64 @PointerGetDatum(ptr noundef %0) #2 {
  %2 = alloca ptr, align 8
  store ptr %0, ptr %2, align 8
  %3 = load ptr, ptr %2, align 8
  %4 = ptrtoint ptr %3 to i64
  ret i64 %4
}

; Function Attrs: inlinehint nounwind uwtable
define internal ptr @DatumGetPointer(i64 noundef %0) #2 {
  %2 = alloca i64, align 8
  store i64 %0, ptr %2, align 8
  %3 = load i64, ptr %2, align 8
  %4 = inttoptr i64 %3 to ptr
  ret ptr %4
}

; Function Attrs: inlinehint nounwind uwtable
define internal i32 @DatumGetInt32(i64 noundef %0) #2 {
  %2 = alloca i64, align 8
  store i64 %0, ptr %2, align 8
  %3 = load i64, ptr %2, align 8
  %4 = trunc i64 %3 to i32
  ret i32 %4
}

; Function Attrs: inlinehint nounwind uwtable
define internal ptr @DatumGetTSQueryCopy(i64 noundef %0) #2 {
  %2 = alloca i64, align 8
  store i64 %0, ptr %2, align 8
  %3 = load i64, ptr %2, align 8
  %4 = call ptr @DatumGetPointer(i64 noundef %3)
  %5 = call ptr @pg_detoast_datum_copy(ptr noundef %4)
  ret ptr %5
}

; Function Attrs: nounwind uwtable
define dso_local i64 @tsquery_phrase_distance(ptr noundef %0) #0 {
  %2 = alloca i64, align 8
  %3 = alloca ptr, align 8
  %4 = alloca ptr, align 8
  %5 = alloca ptr, align 8
  %6 = alloca ptr, align 8
  %7 = alloca ptr, align 8
  %8 = alloca i32, align 4
  %9 = alloca i32, align 4
  store ptr %0, ptr %3, align 8
  call void @llvm.lifetime.start.p0(i64 8, ptr %4) #7
  %10 = load ptr, ptr %3, align 8
  %11 = getelementptr inbounds nuw %struct.FunctionCallInfoBaseData, ptr %10, i32 0, i32 6
  %12 = getelementptr inbounds [0 x %struct.NullableDatum], ptr %11, i64 0, i64 0
  %13 = getelementptr inbounds nuw %struct.NullableDatum, ptr %12, i32 0, i32 0
  %14 = load i64, ptr %13, align 8
  %15 = call ptr @DatumGetTSQueryCopy(i64 noundef %14)
  store ptr %15, ptr %4, align 8
  call void @llvm.lifetime.start.p0(i64 8, ptr %5) #7
  %16 = load ptr, ptr %3, align 8
  %17 = getelementptr inbounds nuw %struct.FunctionCallInfoBaseData, ptr %16, i32 0, i32 6
  %18 = getelementptr inbounds [0 x %struct.NullableDatum], ptr %17, i64 0, i64 1
  %19 = getelementptr inbounds nuw %struct.NullableDatum, ptr %18, i32 0, i32 0
  %20 = load i64, ptr %19, align 8
  %21 = call ptr @DatumGetTSQueryCopy(i64 noundef %20)
  store ptr %21, ptr %5, align 8
  call void @llvm.lifetime.start.p0(i64 8, ptr %6) #7
  call void @llvm.lifetime.start.p0(i64 8, ptr %7) #7
  call void @llvm.lifetime.start.p0(i64 4, ptr %8) #7
  %22 = load ptr, ptr %3, align 8
  %23 = getelementptr inbounds nuw %struct.FunctionCallInfoBaseData, ptr %22, i32 0, i32 6
  %24 = getelementptr inbounds [0 x %struct.NullableDatum], ptr %23, i64 0, i64 2
  %25 = getelementptr inbounds nuw %struct.NullableDatum, ptr %24, i32 0, i32 0
  %26 = load i64, ptr %25, align 8
  %27 = call i32 @DatumGetInt32(i64 noundef %26)
  store i32 %27, ptr %8, align 4
  %28 = load i32, ptr %8, align 4
  %29 = icmp slt i32 %28, 0
  br i1 %29, label %33, label %30

30:                                               ; preds = %1
  %31 = load i32, ptr %8, align 4
  %32 = icmp sgt i32 %31, 16384
  br i1 %32, label %33, label %45

33:                                               ; preds = %30, %1
  br label %34

34:                                               ; preds = %33
  br i1 true, label %35, label %37

35:                                               ; preds = %34
  %36 = call zeroext i1 @errstart_cold(i32 noundef 21, ptr noundef null) #8
  br i1 %36, label %39, label %42

37:                                               ; preds = %34
  %38 = call zeroext i1 @errstart(i32 noundef 21, ptr noundef null)
  br i1 %38, label %39, label %42

39:                                               ; preds = %37, %35
  %40 = call i32 @errcode(i32 noundef 50856066)
  %41 = call i32 (ptr, ...) @errmsg(ptr noundef @.str, i32 noundef 16384)
  call void @errfinish(ptr noundef @.str.1, i32 noundef 126, ptr noundef @__func__.tsquery_phrase_distance)
  br label %42

42:                                               ; preds = %39, %37, %35
  unreachable

43:                                               ; No predecessors!
  br label %44

44:                                               ; preds = %43
  br label %45

45:                                               ; preds = %44, %30
  %46 = load ptr, ptr %4, align 8
  %47 = getelementptr inbounds nuw %struct.TSQueryData, ptr %46, i32 0, i32 1
  %48 = load i32, ptr %47, align 4
  %49 = icmp eq i32 %48, 0
  br i1 %49, label %50, label %67

50:                                               ; preds = %45
  br label %51

51:                                               ; preds = %50
  %52 = load ptr, ptr %4, align 8
  %53 = load ptr, ptr %3, align 8
  %54 = getelementptr inbounds nuw %struct.FunctionCallInfoBaseData, ptr %53, i32 0, i32 6
  %55 = getelementptr inbounds [0 x %struct.NullableDatum], ptr %54, i64 0, i64 1
  %56 = getelementptr inbounds nuw %struct.NullableDatum, ptr %55, i32 0, i32 0
  %57 = load i64, ptr %56, align 8
  %58 = call ptr @DatumGetPointer(i64 noundef %57)
  %59 = icmp ne ptr %52, %58
  br i1 %59, label %60, label %62

60:                                               ; preds = %51
  %61 = load ptr, ptr %4, align 8
  call void @pfree(ptr noundef %61)
  br label %62

62:                                               ; preds = %60, %51
  br label %63

63:                                               ; preds = %62
  br label %64

64:                                               ; preds = %63
  %65 = load ptr, ptr %5, align 8
  %66 = call i64 @PointerGetDatum(ptr noundef %65)
  store i64 %66, ptr %2, align 8
  store i32 1, ptr %9, align 4
  br label %129

67:                                               ; preds = %45
  %68 = load ptr, ptr %5, align 8
  %69 = getelementptr inbounds nuw %struct.TSQueryData, ptr %68, i32 0, i32 1
  %70 = load i32, ptr %69, align 4
  %71 = icmp eq i32 %70, 0
  br i1 %71, label %72, label %89

72:                                               ; preds = %67
  br label %73

73:                                               ; preds = %72
  %74 = load ptr, ptr %5, align 8
  %75 = load ptr, ptr %3, align 8
  %76 = getelementptr inbounds nuw %struct.FunctionCallInfoBaseData, ptr %75, i32 0, i32 6
  %77 = getelementptr inbounds [0 x %struct.NullableDatum], ptr %76, i64 0, i64 1
  %78 = getelementptr inbounds nuw %struct.NullableDatum, ptr %77, i32 0, i32 0
  %79 = load i64, ptr %78, align 8
  %80 = call ptr @DatumGetPointer(i64 noundef %79)
  %81 = icmp ne ptr %74, %80
  br i1 %81, label %82, label %84

82:                                               ; preds = %73
  %83 = load ptr, ptr %5, align 8
  call void @pfree(ptr noundef %83)
  br label %84

84:                                               ; preds = %82, %73
  br label %85

85:                                               ; preds = %84
  br label %86

86:                                               ; preds = %85
  %87 = load ptr, ptr %4, align 8
  %88 = call i64 @PointerGetDatum(ptr noundef %87)
  store i64 %88, ptr %2, align 8
  store i32 1, ptr %9, align 4
  br label %129

89:                                               ; preds = %67
  br label %90

90:                                               ; preds = %89
  %91 = load ptr, ptr %4, align 8
  %92 = load ptr, ptr %5, align 8
  %93 = load i32, ptr %8, align 4
  %94 = trunc i32 %93 to i16
  %95 = call ptr @join_tsqueries(ptr noundef %91, ptr noundef %92, i8 noundef signext 4, i16 noundef zeroext %94)
  store ptr %95, ptr %6, align 8
  %96 = load ptr, ptr %6, align 8
  %97 = call ptr @QTN2QT(ptr noundef %96)
  store ptr %97, ptr %7, align 8
  %98 = load ptr, ptr %6, align 8
  call void @QTNFree(ptr noundef %98)
  br label %99

99:                                               ; preds = %90
  %100 = load ptr, ptr %4, align 8
  %101 = load ptr, ptr %3, align 8
  %102 = getelementptr inbounds nuw %struct.FunctionCallInfoBaseData, ptr %101, i32 0, i32 6
  %103 = getelementptr inbounds [0 x %struct.NullableDatum], ptr %102, i64 0, i64 0
  %104 = getelementptr inbounds nuw %struct.NullableDatum, ptr %103, i32 0, i32 0
  %105 = load i64, ptr %104, align 8
  %106 = call ptr @DatumGetPointer(i64 noundef %105)
  %107 = icmp ne ptr %100, %106
  br i1 %107, label %108, label %110

108:                                              ; preds = %99
  %109 = load ptr, ptr %4, align 8
  call void @pfree(ptr noundef %109)
  br label %110

110:                                              ; preds = %108, %99
  br label %111

111:                                              ; preds = %110
  br label %112

112:                                              ; preds = %111
  br label %113

113:                                              ; preds = %112
  %114 = load ptr, ptr %5, align 8
  %115 = load ptr, ptr %3, align 8
  %116 = getelementptr inbounds nuw %struct.FunctionCallInfoBaseData, ptr %115, i32 0, i32 6
  %117 = getelementptr inbounds [0 x %struct.NullableDatum], ptr %116, i64 0, i64 1
  %118 = getelementptr inbounds nuw %struct.NullableDatum, ptr %117, i32 0, i32 0
  %119 = load i64, ptr %118, align 8
  %120 = call ptr @DatumGetPointer(i64 noundef %119)
  %121 = icmp ne ptr %114, %120
  br i1 %121, label %122, label %124

122:                                              ; preds = %113
  %123 = load ptr, ptr %5, align 8
  call void @pfree(ptr noundef %123)
  br label %124

124:                                              ; preds = %122, %113
  br label %125

125:                                              ; preds = %124
  br label %126

126:                                              ; preds = %125
  %127 = load ptr, ptr %7, align 8
  %128 = call i64 @TSQueryGetDatum(ptr noundef %127)
  store i64 %128, ptr %2, align 8
  store i32 1, ptr %9, align 4
  br label %129

129:                                              ; preds = %126, %86, %64
  call void @llvm.lifetime.end.p0(i64 4, ptr %8) #7
  call void @llvm.lifetime.end.p0(i64 8, ptr %7) #7
  call void @llvm.lifetime.end.p0(i64 8, ptr %6) #7
  call void @llvm.lifetime.end.p0(i64 8, ptr %5) #7
  call void @llvm.lifetime.end.p0(i64 8, ptr %4) #7
  %130 = load i64, ptr %2, align 8
  ret i64 %130
}