; Function Attrs: nounwind uwtable
define dso_local i64 @tsquery_phrase_distance(ptr noundef readonly captures(none) %0) #2 {
  %2 = getelementptr inbounds nuw i8, ptr %0, i64 32
  %3 = load i64, ptr %2, align 8
  %4 = inttoptr i64 %3 to ptr
  %5 = tail call ptr @pg_detoast_datum_copy(ptr noundef %4) #9
  %6 = getelementptr inbounds nuw i8, ptr %0, i64 48
  %7 = load i64, ptr %6, align 8
  %8 = inttoptr i64 %7 to ptr
  %9 = tail call ptr @pg_detoast_datum_copy(ptr noundef %8) #9
  %10 = getelementptr inbounds nuw i8, ptr %0, i64 64
  %11 = load i64, ptr %10, align 8
  %12 = trunc i64 %11 to i32
  %or.cond = icmp ugt i32 %12, 16384
  br i1 %or.cond, label %13, label %17

13:                                               ; preds = %1
  %14 = tail call zeroext i1 @errstart_cold(i32 noundef 21, ptr noundef null) #10
  tail call void @llvm.assume(i1 %14)
  %15 = tail call i32 @errcode(i32 noundef 50856066) #9
  %16 = tail call i32 (ptr, ...) @errmsg(ptr noundef nonnull @.str, i32 noundef 16384) #9
  tail call void @errfinish(ptr noundef nonnull @.str.1, i32 noundef 126, ptr noundef nonnull @__func__.tsquery_phrase_distance) #9
  unreachable

17:                                               ; preds = %1
  %18 = getelementptr inbounds nuw i8, ptr %5, i64 4
  %19 = load i32, ptr %18, align 4
  %20 = icmp eq i32 %19, 0
  br i1 %20, label %21, label %24

21:                                               ; preds = %17
  %22 = load i64, ptr %6, align 8
  %23 = inttoptr i64 %22 to ptr
  %.not34 = icmp eq ptr %5, %23
  br i1 %.not34, label %67, label %.sink.split

24:                                               ; preds = %17
  %25 = getelementptr inbounds nuw i8, ptr %9, i64 4
  %26 = load i32, ptr %25, align 4
  %27 = icmp eq i32 %26, 0
  br i1 %27, label %28, label %31

28:                                               ; preds = %24
  %29 = load i64, ptr %6, align 8
  %30 = inttoptr i64 %29 to ptr
  %.not33 = icmp eq ptr %9, %30
  br i1 %.not33, label %67, label %.sink.split

31:                                               ; preds = %24
  %32 = trunc i64 %11 to i16
  %33 = tail call ptr @palloc0(i64 noundef 40) #9
  %34 = getelementptr inbounds nuw i8, ptr %33, i64 8
  %35 = load i32, ptr %34, align 8
  %36 = or i32 %35, 1
  store i32 %36, ptr %34, align 8
  %37 = tail call ptr @palloc0(i64 noundef 12) #9
  store ptr %37, ptr %33, align 8
  store i8 2, ptr %37, align 4
  %38 = load ptr, ptr %33, align 8
  %39 = getelementptr inbounds nuw i8, ptr %38, i64 1
  store i8 4, ptr %39, align 1
  %40 = load ptr, ptr %33, align 8
  %41 = getelementptr inbounds nuw i8, ptr %40, i64 2
  store i16 %32, ptr %41, align 2
  %42 = tail call ptr @palloc0(i64 noundef 16) #9
  %43 = getelementptr inbounds nuw i8, ptr %33, i64 32
  store ptr %42, ptr %43, align 8
  %44 = getelementptr inbounds nuw i8, ptr %9, i64 8
  %45 = load i32, ptr %25, align 4
  %46 = sext i32 %45 to i64
  %47 = mul nsw i64 %46, 12
  %48 = getelementptr inbounds nuw i8, ptr %44, i64 %47
  %49 = tail call ptr @QT2QTN(ptr noundef nonnull %44, ptr noundef nonnull %48) #9
  %50 = load ptr, ptr %43, align 8
  store ptr %49, ptr %50, align 8
  %51 = getelementptr inbounds nuw i8, ptr %5, i64 8
  %52 = load i32, ptr %18, align 4
  %53 = sext i32 %52 to i64
  %54 = mul nsw i64 %53, 12
  %55 = getelementptr inbounds nuw i8, ptr %51, i64 %54
  %56 = tail call ptr @QT2QTN(ptr noundef nonnull %51, ptr noundef nonnull %55) #9
  %57 = load ptr, ptr %43, align 8
  %58 = getelementptr inbounds nuw i8, ptr %57, i64 8
  store ptr %56, ptr %58, align 8
  %59 = getelementptr inbounds nuw i8, ptr %33, i64 12
  store i32 2, ptr %59, align 4
  %60 = tail call ptr @QTN2QT(ptr noundef nonnull %33) #9
  tail call void @QTNFree(ptr noundef nonnull %33) #9
  %61 = load i64, ptr %2, align 8
  %62 = inttoptr i64 %61 to ptr
  %.not = icmp eq ptr %5, %62
  br i1 %.not, label %64, label %63

63:                                               ; preds = %31
  tail call void @pfree(ptr noundef nonnull %5) #9
  br label %64

64:                                               ; preds = %31, %63
  %65 = load i64, ptr %6, align 8
  %66 = inttoptr i64 %65 to ptr
  %.not32 = icmp eq ptr %9, %66
  br i1 %.not32, label %67, label %.sink.split

.sink.split:                                      ; preds = %64, %28, %21
  %.sink = phi ptr [ %5, %21 ], [ %9, %28 ], [ %9, %64 ]
  %.0.in.ph = phi ptr [ %9, %21 ], [ %5, %28 ], [ %60, %64 ]
  tail call void @pfree(ptr noundef nonnull %.sink) #9
  br label %67

67:                                               ; preds = %.sink.split, %64, %28, %21
  %.0.in = phi ptr [ %9, %21 ], [ %5, %28 ], [ %60, %64 ], [ %.0.in.ph, %.sink.split ]
  %.0 = ptrtoint ptr %.0.in to i64
  ret i64 %.0
}